; ModuleID = 'source-C-CXX/3/2117.c'
source_filename = "source-C-CXX/3/2117.c"
target datalayout = "e-m:e-p270:32:32-p271:32:32-p272:64:64-i64:64-f80:128-n8:16:32:64-S128"
target triple = "x86_64-pc-linux-gnu"

@.str = private unnamed_addr constant [5 x i8] c"%d%d\00", align 1
@.str.1 = private unnamed_addr constant [3 x i8] c"%d\00", align 1
@.str.2 = private unnamed_addr constant [4 x i8] c"%d\0A\00", align 1

; Function Attrs: nofree nounwind sspstrong uwtable
define dso_local i32 @main() local_unnamed_addr #0 {
  %1 = alloca i32, align 4
  %2 = alloca i32, align 4
  %3 = alloca [100 x [100 x i32]], align 16
  %4 = bitcast i32* %1 to i8*
  call void @llvm.lifetime.start.p0i8(i64 4, i8* nonnull %4) #3
  %5 = bitcast i32* %2 to i8*
  call void @llvm.lifetime.start.p0i8(i64 4, i8* nonnull %5) #3
  %6 = bitcast [100 x [100 x i32]]* %3 to i8*
  call void @llvm.lifetime.start.p0i8(i64 40000, i8* nonnull %6) #3
  %7 = call i32 (i8*, ...) @__isoc99_scanf(i8* getelementptr inbounds ([5 x i8], [5 x i8]* @.str, i64 0, i64 0), i32* nonnull %1, i32* nonnull %2)
  %8 = load i32, i32* %1, align 4, !tbaa !5
  %9 = icmp sgt i32 %8, 0
  %10 = load i32, i32* %2, align 4, !tbaa !5
  %11 = icmp sgt i32 %10, 0
  %12 = select i1 %9, i1 %11, i1 false
  br i1 %12, label %13, label %18

13:                                               ; preds = %0, %36
  %14 = phi i32 [ %37, %36 ], [ %8, %0 ]
  %15 = phi i32 [ %38, %36 ], [ %10, %0 ]
  %16 = phi i64 [ %39, %36 ], [ 0, %0 ]
  %17 = icmp sgt i32 %15, 0
  br i1 %17, label %26, label %36

18:                                               ; preds = %36, %0
  %19 = phi i32 [ %10, %0 ], [ %38, %36 ]
  %20 = phi i32 [ %8, %0 ], [ %37, %36 ]
  %21 = add i32 %20, -1
  %22 = add i32 %21, %19
  %23 = icmp sgt i32 %22, 0
  %24 = icmp sgt i32 %20, 0
  %25 = select i1 %23, i1 %24, i1 false
  br i1 %25, label %42, label %82

26:                                               ; preds = %13, %26
  %27 = phi i64 [ %30, %26 ], [ 0, %13 ]
  %28 = getelementptr inbounds [100 x [100 x i32]], [100 x [100 x i32]]* %3, i64 0, i64 %16, i64 %27
  %29 = call i32 (i8*, ...) @__isoc99_scanf(i8* getelementptr inbounds ([3 x i8], [3 x i8]* @.str.1, i64 0, i64 0), i32* nonnull %28)
  %30 = add nuw nsw i64 %27, 1
  %31 = load i32, i32* %2, align 4, !tbaa !5
  %32 = sext i32 %31 to i64
  %33 = icmp slt i64 %30, %32
  br i1 %33, label %26, label %34, !llvm.loop !9

34:                                               ; preds = %26
  %35 = load i32, i32* %1, align 4, !tbaa !5
  br label %36

36:                                               ; preds = %34, %13
  %37 = phi i32 [ %35, %34 ], [ %14, %13 ]
  %38 = phi i32 [ %31, %34 ], [ %15, %13 ]
  %39 = add nuw nsw i64 %16, 1
  %40 = sext i32 %37 to i64
  %41 = icmp slt i64 %39, %40
  br i1 %41, label %13, label %18, !llvm.loop !11

42:                                               ; preds = %18, %73
  %43 = phi i32 [ %74, %73 ], [ %19, %18 ]
  %44 = phi i32 [ %75, %73 ], [ %20, %18 ]
  %45 = phi i64 [ %76, %73 ], [ 0, %18 ]
  %46 = phi i64 [ %81, %73 ], [ 1, %18 ]
  %47 = icmp sgt i32 %44, 0
  br i1 %47, label %48, label %73

48:                                               ; preds = %42, %64
  %49 = phi i32 [ %65, %64 ], [ %44, %42 ]
  %50 = phi i32 [ %66, %64 ], [ %44, %42 ]
  %51 = phi i64 [ %67, %64 ], [ 0, %42 ]
  %52 = sub nsw i64 %45, %51
  %53 = icmp eq i64 %51, %46
  br i1 %53, label %70, label %54

54:                                               ; preds = %48
  %55 = load i32, i32* %2, align 4, !tbaa !5
  %56 = sext i32 %55 to i64
  %57 = icmp slt i64 %52, %56
  br i1 %57, label %58, label %64

58:                                               ; preds = %54
  %59 = and i64 %52, 4294967295
  %60 = getelementptr inbounds [100 x [100 x i32]], [100 x [100 x i32]]* %3, i64 0, i64 %51, i64 %59
  %61 = load i32, i32* %60, align 4, !tbaa !5
  %62 = call i32 (i8*, ...) @printf(i8* nonnull dereferenceable(1) getelementptr inbounds ([4 x i8], [4 x i8]* @.str.2, i64 0, i64 0), i32 %61)
  %63 = load i32, i32* %1, align 4, !tbaa !5
  br label %64

64:                                               ; preds = %58, %54
  %65 = phi i32 [ %63, %58 ], [ %49, %54 ]
  %66 = phi i32 [ %63, %58 ], [ %50, %54 ]
  %67 = add nuw nsw i64 %51, 1
  %68 = sext i32 %66 to i64
  %69 = icmp slt i64 %67, %68
  br i1 %69, label %48, label %70, !llvm.loop !13

70:                                               ; preds = %64, %48
  %71 = phi i32 [ %65, %64 ], [ %49, %48 ]
  %72 = load i32, i32* %2, align 4, !tbaa !5
  br label %73

73:                                               ; preds = %70, %42
  %74 = phi i32 [ %72, %70 ], [ %43, %42 ]
  %75 = phi i32 [ %71, %70 ], [ %44, %42 ]
  %76 = add nuw nsw i64 %45, 1
  %77 = add i32 %75, -1
  %78 = add i32 %77, %74
  %79 = sext i32 %78 to i64
  %80 = icmp slt i64 %76, %79
  %81 = add nuw nsw i64 %46, 1
  br i1 %80, label %42, label %82, !llvm.loop !14

82:                                               ; preds = %73, %18
  call void @llvm.lifetime.end.p0i8(i64 40000, i8* nonnull %6) #3
  call void @llvm.lifetime.end.p0i8(i64 4, i8* nonnull %5) #3
  call void @llvm.lifetime.end.p0i8(i64 4, i8* nonnull %4) #3
  ret i32 0
}

; Function Attrs: argmemonly mustprogress nofree nosync nounwind willreturn
declare void @llvm.lifetime.start.p0i8(i64 immarg, i8* nocapture) #1

; Function Attrs: nofree nounwind
declare noundef i32 @__isoc99_scanf(i8* nocapture noundef readonly, ...) local_unnamed_addr #2

; Function Attrs: nofree nounwind
declare noundef i32 @printf(i8* nocapture noundef readonly, ...) local_unnamed_addr #2

; Function Attrs: argmemonly mustprogress nofree nosync nounwind willreturn
declare void @llvm.lifetime.end.p0i8(i64 immarg, i8* nocapture) #1


!llvm.module.flags = !{!0, !1, !2, !3}
!llvm.ident = !{!4}

!0 = !{i32 1, !"wchar_size", i32 4}
!1 = !{i32 7, !"PIC Level", i32 2}
!2 = !{i32 7, !"PIE Level", i32 2}
!3 = !{i32 7, !"uwtable", i32 1}
!4 = !{!"clang version 13.0.0"}
!5 = !{!6, !6, i64 0}
!6 = !{!"int", !7, i64 0}
!7 = !{!"omnipotent char", !8, i64 0}
!8 = !{!"Simple C/C++ TBAA"}
!9 = distinct !{!9, !10}
!10 = !{!"llvm.loop.mustprogress"}
!11 = distinct !{!11, !10, !12}
!12 = !{!"llvm.loop.unswitch.partial.disable"}
!13 = distinct !{!13, !10}
!14 = distinct !{!14, !10, !12}
